target datalayout = "e-m:e-p270:32:32-p271:32:32-p272:64:64-i64:64-i128:128-f80:128-n8:16:32:64-S128"
target triple = "x86_64-pc-linux-gnu"

%struct.PJconsts = type { ptr, ptr, ptr, ptr, ptr, ptr, ptr, ptr, ptr, ptr, ptr, ptr, i32, ptr, ptr, ptr, ptr, ptr, ptr, ptr, ptr, double, double, double, double, double, double, double, double, double, double, double, double, double, double, double, double, double, double, double, double, double, double, i32, i32, i32, i32, i32, i32, i32, i32, i32, i32, i32, ptr, ptr, ptr, ptr, ptr, ptr, double, double, double, double, double, double, double, double, double, double, double, i32, [7 x double], i32, ptr, ptr, double, double, i32, [4 x i8], %"class.std::shared_ptr", i8, double, i8, %"class.std::__cxx11::basic_string", %"class.std::__cxx11::basic_string", %"class.std::__cxx11::basic_string", i8, %"class.std::vector", i32, %"class.std::vector.3", i32, i8, i8, i8, ptr }
%"class.std::shared_ptr" = type { %"class.std::__shared_ptr" }
%"class.std::__shared_ptr" = type { ptr, %"class.std::__shared_count" }
%"class.std::__shared_count" = type { ptr }
%"class.std::__cxx11::basic_string" = type { %"struct.std::__cxx11::basic_string<char>::_Alloc_hider", i64, %union.anon }
%"struct.std::__cxx11::basic_string<char>::_Alloc_hider" = type { ptr }
%union.anon = type { i64, [8 x i8] }
%"class.std::vector" = type { %"struct.std::_Vector_base" }
%"struct.std::_Vector_base" = type { %"struct.std::_Vector_base<osgeo::proj::operation::GridDescription, std::allocator<osgeo::proj::operation::GridDescription>>::_Vector_impl" }
%"struct.std::_Vector_base<osgeo::proj::operation::GridDescription, std::allocator<osgeo::proj::operation::GridDescription>>::_Vector_impl" = type { %"struct.std::_Vector_base<osgeo::proj::operation::GridDescription, std::allocator<osgeo::proj::operation::GridDescription>>::_Vector_impl_data" }
%"struct.std::_Vector_base<osgeo::proj::operation::GridDescription, std::allocator<osgeo::proj::operation::GridDescription>>::_Vector_impl_data" = type { ptr, ptr, ptr }
%"class.std::vector.3" = type { %"struct.std::_Vector_base.4" }
%"struct.std::_Vector_base.4" = type { %"struct.std::_Vector_base<PJCoordOperation, std::allocator<PJCoordOperation>>::_Vector_impl" }
%"struct.std::_Vector_base<PJCoordOperation, std::allocator<PJCoordOperation>>::_Vector_impl" = type { %"struct.std::_Vector_base<PJCoordOperation, std::allocator<PJCoordOperation>>::_Vector_impl_data" }
%"struct.std::_Vector_base<PJCoordOperation, std::allocator<PJCoordOperation>>::_Vector_impl_data" = type { ptr, ptr, ptr }
%"class.std::vector.8" = type { %"struct.std::_Vector_base.9" }
%"struct.std::_Vector_base.9" = type { %"struct.std::_Vector_base<std::unique_ptr<osgeo::proj::GenericShiftGridSet>, std::allocator<std::unique_ptr<osgeo::proj::GenericShiftGridSet>>>::_Vector_impl" }
%"struct.std::_Vector_base<std::unique_ptr<osgeo::proj::GenericShiftGridSet>, std::allocator<std::unique_ptr<osgeo::proj::GenericShiftGridSet>>>::_Vector_impl" = type { %"struct.std::_Vector_base<std::unique_ptr<osgeo::proj::GenericShiftGridSet>, std::allocator<std::unique_ptr<osgeo::proj::GenericShiftGridSet>>>::_Vector_impl_data" }
%"struct.std::_Vector_base<std::unique_ptr<osgeo::proj::GenericShiftGridSet>, std::allocator<std::unique_ptr<osgeo::proj::GenericShiftGridSet>>>::_Vector_impl_data" = type { ptr, ptr, ptr }
%"class.std::vector.13" = type { %"struct.std::_Vector_base.14" }
%"struct.std::_Vector_base.14" = type { %"struct.std::_Vector_base<std::unique_ptr<osgeo::proj::HorizontalShiftGridSet>, std::allocator<std::unique_ptr<osgeo::proj::HorizontalShiftGridSet>>>::_Vector_impl" }
%"struct.std::_Vector_base<std::unique_ptr<osgeo::proj::HorizontalShiftGridSet>, std::allocator<std::unique_ptr<osgeo::proj::HorizontalShiftGridSet>>>::_Vector_impl" = type { %"struct.std::_Vector_base<std::unique_ptr<osgeo::proj::HorizontalShiftGridSet>, std::allocator<std::unique_ptr<osgeo::proj::HorizontalShiftGridSet>>>::_Vector_impl_data" }
%"struct.std::_Vector_base<std::unique_ptr<osgeo::proj::HorizontalShiftGridSet>, std::allocator<std::unique_ptr<osgeo::proj::HorizontalShiftGridSet>>>::_Vector_impl_data" = type { ptr, ptr, ptr }
%"class.std::vector.18" = type { %"struct.std::_Vector_base.19" }
%"struct.std::_Vector_base.19" = type { %"struct.std::_Vector_base<std::unique_ptr<osgeo::proj::VerticalShiftGridSet>, std::allocator<std::unique_ptr<osgeo::proj::VerticalShiftGridSet>>>::_Vector_impl" }
%"struct.std::_Vector_base<std::unique_ptr<osgeo::proj::VerticalShiftGridSet>, std::allocator<std::unique_ptr<osgeo::proj::VerticalShiftGridSet>>>::_Vector_impl" = type { %"struct.std::_Vector_base<std::unique_ptr<osgeo::proj::VerticalShiftGridSet>, std::allocator<std::unique_ptr<osgeo::proj::VerticalShiftGridSet>>>::_Vector_impl_data" }
%"struct.std::_Vector_base<std::unique_ptr<osgeo::proj::VerticalShiftGridSet>, std::allocator<std::unique_ptr<osgeo::proj::VerticalShiftGridSet>>>::_Vector_impl_data" = type { ptr, ptr, ptr }
%"struct.(anonymous namespace)::deformationData" = type { double, double, ptr, %"class.std::vector.8", %"class.std::vector.13", %"class.std::vector.18" }
%struct.PJ_XYZ = type { double, double, double }
%union.PJ_COORD = type { [4 x double] }
%struct.PJ_XYZT = type { double, double, double, double }

; Function Attrs: mustprogress uwtable
define internal void @_ZL25pj_deformation_forward_4dR8PJ_COORDP8PJconsts(ptr noundef nonnull align 8 dereferenceable(32) %0, ptr noundef %1) #0 {
  %3 = alloca ptr, align 8
  %4 = alloca ptr, align 8
  %5 = alloca ptr, align 8
  %6 = alloca double, align 8
  %7 = alloca %struct.PJ_XYZ, align 8
  %8 = alloca %union.PJ_COORD, align 8
  %9 = alloca i32, align 4
  %10 = alloca %struct.PJ_XYZ, align 8
  store ptr %0, ptr %3, align 8, !tbaa !87
  store ptr %1, ptr %4, align 8, !tbaa !3
  call void @llvm.lifetime.start.p0(i64 8, ptr %5) #13
  %11 = load ptr, ptr %4, align 8, !tbaa !3
  %12 = getelementptr inbounds nuw %struct.PJconsts, ptr %11, i32 0, i32 11
  %13 = load ptr, ptr %12, align 8, !tbaa !43
  store ptr %13, ptr %5, align 8, !tbaa !41
  call void @llvm.lifetime.start.p0(i64 8, ptr %6) #13
  call void @llvm.lifetime.start.p0(i64 24, ptr %7) #13
  %14 = load ptr, ptr %5, align 8, !tbaa !41
  %15 = getelementptr inbounds nuw %"struct.(anonymous namespace)::deformationData", ptr %14, i32 0, i32 0
  %16 = load double, ptr %15, align 8, !tbaa !66
  %17 = fcmp une double %16, 0x7FF0000000000000
  br i1 %17, label %18, label %22

18:                                               ; preds = %2
  %19 = load ptr, ptr %5, align 8, !tbaa !41
  %20 = getelementptr inbounds nuw %"struct.(anonymous namespace)::deformationData", ptr %19, i32 0, i32 0
  %21 = load double, ptr %20, align 8, !tbaa !66
  store double %21, ptr %6, align 8, !tbaa !89
  br label %39

22:                                               ; preds = %2
  %23 = load ptr, ptr %3, align 8, !tbaa !87
  %24 = getelementptr inbounds nuw %struct.PJ_XYZT, ptr %23, i32 0, i32 3
  %25 = load double, ptr %24, align 8, !tbaa !64
  %26 = fcmp oeq double %25, 0x7FF0000000000000
  br i1 %26, label %27, label %31

27:                                               ; preds = %22
  call void @llvm.lifetime.start.p0(i64 32, ptr %8) #13
  call void @_Z16proj_coord_errorv(ptr dead_on_unwind writable sret(%union.PJ_COORD) align 8 %8)
  %28 = load ptr, ptr %3, align 8, !tbaa !87
  call void @llvm.memcpy.p0.p0.i64(ptr align 8 %28, ptr align 8 %8, i64 32, i1 false), !tbaa.struct !90
  call void @llvm.lifetime.end.p0(i64 32, ptr %8) #13
  %29 = load ptr, ptr %4, align 8, !tbaa !3
  %30 = call i32 @proj_errno_set(ptr noundef %29, i32 noundef 2055)
  store i32 1, ptr %9, align 4
  br label %63

31:                                               ; preds = %22
  %32 = load ptr, ptr %3, align 8, !tbaa !87
  %33 = getelementptr inbounds nuw %struct.PJ_XYZT, ptr %32, i32 0, i32 3
  %34 = load double, ptr %33, align 8, !tbaa !64
  %35 = load ptr, ptr %5, align 8, !tbaa !41
  %36 = getelementptr inbounds nuw %"struct.(anonymous namespace)::deformationData", ptr %35, i32 0, i32 1
  %37 = load double, ptr %36, align 8, !tbaa !67
  %38 = fsub double %34, %37
  store double %38, ptr %6, align 8, !tbaa !89
  br label %39

39:                                               ; preds = %31, %18
  call void @llvm.lifetime.start.p0(i64 24, ptr %10) #13
  %40 = load ptr, ptr %4, align 8, !tbaa !3
  %41 = load ptr, ptr %3, align 8, !tbaa !87
  call void @_ZL29pj_deformation_get_grid_shiftP8PJconstsRK6PJ_XYZ(ptr dead_on_unwind writable sret(%struct.PJ_XYZ) align 8 %10, ptr noundef %40, ptr noundef nonnull align 8 dereferenceable(24) %41)
  call void @llvm.memcpy.p0.p0.i64(ptr align 8 %7, ptr align 8 %10, i64 24, i1 false), !tbaa.struct !91
  call void @llvm.lifetime.end.p0(i64 24, ptr %10) #13
  %42 = load double, ptr %6, align 8, !tbaa !89
  %43 = getelementptr inbounds nuw %struct.PJ_XYZ, ptr %7, i32 0, i32 0
  %44 = load double, ptr %43, align 8, !tbaa !92
  %45 = load ptr, ptr %3, align 8, !tbaa !87
  %46 = getelementptr inbounds nuw %struct.PJ_XYZT, ptr %45, i32 0, i32 0
  %47 = load double, ptr %46, align 8, !tbaa !64
  %48 = call double @llvm.fmuladd.f64(double %42, double %44, double %47)
  store double %48, ptr %46, align 8, !tbaa !64
  %49 = load double, ptr %6, align 8, !tbaa !89
  %50 = getelementptr inbounds nuw %struct.PJ_XYZ, ptr %7, i32 0, i32 1
  %51 = load double, ptr %50, align 8, !tbaa !94
  %52 = load ptr, ptr %3, align 8, !tbaa !87
  %53 = getelementptr inbounds nuw %struct.PJ_XYZT, ptr %52, i32 0, i32 1
  %54 = load double, ptr %53, align 8, !tbaa !64
  %55 = call double @llvm.fmuladd.f64(double %49, double %51, double %54)
  store double %55, ptr %53, align 8, !tbaa !64
  %56 = load double, ptr %6, align 8, !tbaa !89
  %57 = getelementptr inbounds nuw %struct.PJ_XYZ, ptr %7, i32 0, i32 2
  %58 = load double, ptr %57, align 8, !tbaa !95
  %59 = load ptr, ptr %3, align 8, !tbaa !87
  %60 = getelementptr inbounds nuw %struct.PJ_XYZT, ptr %59, i32 0, i32 2
  %61 = load double, ptr %60, align 8, !tbaa !64
  %62 = call double @llvm.fmuladd.f64(double %56, double %58, double %61)
  store double %62, ptr %60, align 8, !tbaa !64
  store i32 0, ptr %9, align 4
  br label %63

63:                                               ; preds = %39, %27
  call void @llvm.lifetime.end.p0(i64 24, ptr %7) #13
  call void @llvm.lifetime.end.p0(i64 8, ptr %6) #13
  call void @llvm.lifetime.end.p0(i64 8, ptr %5) #13
  %64 = load i32, ptr %9, align 4
  switch i32 %64, label %66 [
    i32 0, label %65
    i32 1, label %65
  ]

65:                                               ; preds = %63, %63
  ret void

66:                                               ; preds = %63
  unreachable
}